; Function Attrs: nounwind uwtable
define void @lv_animimg_set_duration(ptr noundef %0, i32 noundef %1) local_unnamed_addr #0 {
  %.not = icmp eq ptr %0, null
  br i1 %.not, label %.preheader, label %3

.preheader:                                       ; preds = %2, %.preheader
  br label %.preheader

3:                                                ; preds = %2
  %4 = getelementptr inbounds nuw i8, ptr %0, i64 120
  tail call void @lv_anim_set_duration(ptr noundef nonnull %4, i32 noundef %1) #4
  tail call void @lv_anim_set_reverse_delay(ptr noundef nonnull %4, i32 noundef %1) #4
  ret void
}